target datalayout = "e-m:e-p270:32:32-p271:32:32-p272:64:64-i64:64-i128:128-f80:128-n8:16:32:64-S128"
target triple = "x86_64-unknown-linux-gnu"

%"class.v8::ReturnValue" = type { ptr }

@_ZN4node6cryptoL23extra_root_certs_loadedE = internal global i8 0, align 1

; Function Attrs: mustprogress nounwind uwtable
define dso_local void @_ZN4node6crypto26IsExtraRootCertsFileLoadedERKN2v820FunctionCallbackInfoINS1_5ValueEEE(ptr noundef nonnull align 8 dereferenceable(20) %args) #4 {
entry:
  %this.addr.i5 = alloca ptr, align 8
  %isolate.addr.i.i = alloca ptr, align 8
  %index.addr.i.i = alloca i32, align 4
  %addr.i.i = alloca i64, align 8
  %isolate.addr.i = alloca ptr, align 8
  %index.addr.i = alloca i32, align 4
  %this.addr.i3 = alloca ptr, align 8
  %slot.addr.i = alloca ptr, align 8
  %this.addr.i1 = alloca ptr, align 8
  %value.addr.i = alloca i8, align 1
  %root_index.i = alloca i32, align 4
  %retval.i = alloca %"class.v8::ReturnValue", align 8
  %this.addr.i = alloca ptr, align 8
  %args.addr = alloca ptr, align 8
  %ref.tmp = alloca %"class.v8::ReturnValue", align 8
  store ptr %args, ptr %args.addr, align 8
  %0 = load ptr, ptr %args.addr, align 8
  store ptr %0, ptr %this.addr.i, align 8
  %this1.i = load ptr, ptr %this.addr.i, align 8
  %1 = load ptr, ptr %this1.i, align 8
  %arrayidx.i = getelementptr inbounds i64, ptr %1, i64 3
  store ptr %retval.i, ptr %this.addr.i3, align 8
  store ptr %arrayidx.i, ptr %slot.addr.i, align 8
  %this1.i4 = load ptr, ptr %this.addr.i3, align 8
  %2 = load ptr, ptr %slot.addr.i, align 8
  store ptr %2, ptr %this1.i4, align 8
  %3 = load ptr, ptr %retval.i, align 8
  %coerce.dive = getelementptr inbounds %"class.v8::ReturnValue", ptr %ref.tmp, i32 0, i32 0
  store ptr %3, ptr %coerce.dive, align 8
  %4 = load i8, ptr @_ZN4node6cryptoL23extra_root_certs_loadedE, align 1
  %tobool = trunc i8 %4 to i1
  store ptr %ref.tmp, ptr %this.addr.i1, align 8
  %frombool.i = zext i1 %tobool to i8
  store i8 %frombool.i, ptr %value.addr.i, align 1
  %this1.i2 = load ptr, ptr %this.addr.i1, align 8
  %5 = load i8, ptr %value.addr.i, align 1
  %tobool.i = trunc i8 %5 to i1
  br i1 %tobool.i, label %if.then.i, label %if.else.i

if.then.i:                                        ; preds = %entry
  store i32 7, ptr %root_index.i, align 4
  br label %_ZN2v811ReturnValueINS_5ValueEE3SetEb.exit

if.else.i:                                        ; preds = %entry
  store i32 8, ptr %root_index.i, align 4
  br label %_ZN2v811ReturnValueINS_5ValueEE3SetEb.exit

_ZN2v811ReturnValueINS_5ValueEE3SetEb.exit:       ; preds = %if.else.i, %if.then.i
  store ptr %this1.i2, ptr %this.addr.i5, align 8
  %this1.i6 = load ptr, ptr %this.addr.i5, align 8
  %6 = load ptr, ptr %this1.i6, align 8
  %arrayidx.i7 = getelementptr inbounds i64, ptr %6, i64 -2
  %7 = load ptr, ptr %arrayidx.i7, align 8
  %8 = load i32, ptr %root_index.i, align 4
  store ptr %7, ptr %isolate.addr.i, align 8
  store i32 %8, ptr %index.addr.i, align 4
  %9 = load ptr, ptr %isolate.addr.i, align 8
  %10 = load i32, ptr %index.addr.i, align 4
  store ptr %9, ptr %isolate.addr.i.i, align 8
  store i32 %10, ptr %index.addr.i.i, align 4
  %11 = load ptr, ptr %isolate.addr.i.i, align 8
  %12 = ptrtoint ptr %11 to i64
  %add.i.i = add i64 %12, 576
  %13 = load i32, ptr %index.addr.i.i, align 4
  %mul.i.i = mul nsw i32 %13, 8
  %conv.i.i = sext i32 %mul.i.i to i64
  %add1.i.i = add i64 %add.i.i, %conv.i.i
  store i64 %add1.i.i, ptr %addr.i.i, align 8
  %14 = load i64, ptr %addr.i.i, align 8
  %15 = inttoptr i64 %14 to ptr
  %16 = load i64, ptr %15, align 8
  %17 = load ptr, ptr %this1.i2, align 8
  store i64 %16, ptr %17, align 8
  ret void
}